; Function Attrs: mustprogress uwtable
define internal void @"_ZZ14cmUVStreamReadIZZN7cmCTest10RunCommandERKSt6vectorINSt7__cxx1112basic_stringIcSt11char_traitsIcESaIcEEESaIS7_EEPS7_SC_PiPKcNSt6chrono8durationIdSt5ratioILl1ELl1EEEEN15cmProcessOutput8EncodingEENK3$_1clERN2cm11uv_pipe_ptrEiRS1_IcS6_ERbEUlSR_E_ZZNS0_10RunCommandESB_SC_SC_SD_SF_SK_SM_ENKSN_clESQ_iSS_ST_EUlvE_ESt10unique_ptrI20cmUVStreamReadHandleSt14default_deleteISX_EEP11uv_stream_sT_T0_ENUlP11uv_handle_smP8uv_buf_tE_8__invokeES16_mS18_"(ptr nocapture noundef readonly %0, i64 noundef %1, ptr nocapture noundef writeonly %2) #3 align 2 {
  %.val = load ptr, ptr %0, align 8
  tail call void @_ZNSt6vectorIcSaIcEE6resizeEm(ptr noundef nonnull align 8 dereferenceable(24) %.val, i64 noundef %1)
  %4 = load ptr, ptr %.val, align 8
  store ptr %4, ptr %2, align 8
  %5 = getelementptr inbounds i8, ptr %2, i64 8
  store i64 %1, ptr %5, align 8
  ret void
}